target datalayout = "e-m:e-p270:32:32-p271:32:32-p272:64:64-i64:64-i128:128-f80:128-n8:16:32:64-S128"
target triple = "x86_64-pc-linux-gnu"

@.str.102 = private unnamed_addr constant [14 x i8] c"0123456789+-.\00", align 1

; Function Attrs: nounwind uwtable
define internal zeroext i1 @_is_number_begin(i8 noundef signext %0) #0 {
  %2 = alloca i8, align 1
  store i8 %0, ptr %2, align 1, !tbaa !18
  %3 = load i8, ptr %2, align 1, !tbaa !18
  %4 = sext i8 %3 to i32
  %5 = icmp ne i32 %4, 0
  br i1 %5, label %6, label %11

6:                                                ; preds = %1
  %7 = load i8, ptr %2, align 1, !tbaa !18
  %8 = sext i8 %7 to i32
  %9 = call ptr @strchr(ptr noundef @.str.102, i32 noundef %8) #10
  %10 = icmp ne ptr %9, null
  br label %11

11:                                               ; preds = %6, %1
  %12 = phi i1 [ false, %1 ], [ %10, %6 ]
  ret i1 %12
}

; Function Attrs: nounwind uwtable
define internal ptr @_parse_number(ptr noundef %0, ptr noundef %1, ptr noundef %2) #0 {
  %4 = alloca ptr, align 8
  %5 = alloca ptr, align 8
  %6 = alloca ptr, align 8
  %7 = alloca ptr, align 8
  %8 = alloca ptr, align 8
  store ptr %0, ptr %5, align 8, !tbaa !3
  store ptr %1, ptr %6, align 8, !tbaa !3
  store ptr %2, ptr %7, align 8, !tbaa !3
  %9 = load ptr, ptr %5, align 8, !tbaa !3
  %10 = icmp ne ptr %9, null
  br i1 %10, label %12, label %11

11:                                               ; preds = %3
  store ptr null, ptr %4, align 8
  br label %37

12:                                               ; preds = %3
  br label %13

13:                                               ; preds = %24, %12
  %14 = load ptr, ptr %5, align 8, !tbaa !3
  %15 = load ptr, ptr %6, align 8, !tbaa !3
  %16 = icmp ult ptr %14, %15
  br i1 %16, label %17, label %22

17:                                               ; preds = %13
  %18 = load ptr, ptr %5, align 8, !tbaa !3
  %19 = load i8, ptr %18, align 1, !tbaa !18
  %20 = call zeroext i1 @_is_number_begin(i8 noundef signext %19)
  %21 = xor i1 %20, true
  br label %22

22:                                               ; preds = %17, %13
  %23 = phi i1 [ false, %13 ], [ %21, %17 ]
  br i1 %23, label %24, label %27

24:                                               ; preds = %22
  %25 = load ptr, ptr %5, align 8, !tbaa !3
  %26 = getelementptr inbounds nuw i8, ptr %25, i32 1
  store ptr %26, ptr %5, align 8, !tbaa !3
  br label %13, !llvm.loop !83

27:                                               ; preds = %22
  %28 = load ptr, ptr %5, align 8, !tbaa !3
  %29 = load ptr, ptr %6, align 8, !tbaa !3
  %30 = icmp eq ptr %28, %29
  br i1 %30, label %31, label %32

31:                                               ; preds = %27
  store ptr null, ptr %4, align 8
  br label %37

32:                                               ; preds = %27
  call void @llvm.lifetime.start.p0(i64 8, ptr %8) #9
  store ptr null, ptr %8, align 8, !tbaa !3
  %33 = load ptr, ptr %5, align 8, !tbaa !3
  %34 = call float @strtof(ptr noundef %33, ptr noundef %8) #9
  %35 = load ptr, ptr %7, align 8, !tbaa !3
  store float %34, ptr %35, align 4, !tbaa !64
  %36 = load ptr, ptr %8, align 8, !tbaa !3
  store ptr %36, ptr %4, align 8
  call void @llvm.lifetime.end.p0(i64 8, ptr %8) #9
  br label %37

37:                                               ; preds = %32, %31, %11
  %38 = load ptr, ptr %4, align 8
  ret ptr %38
}

; Function Attrs: nounwind uwtable
define internal ptr @_parse_length(ptr noundef %0, ptr noundef %1, i32 noundef %2, ptr noundef %3) #0 {
  %5 = alloca ptr, align 8
  %6 = alloca ptr, align 8
  %7 = alloca i32, align 4
  %8 = alloca ptr, align 8
  %9 = alloca i32, align 4
  store ptr %0, ptr %5, align 8, !tbaa !3
  store ptr %1, ptr %6, align 8, !tbaa !3
  store i32 %2, ptr %7, align 4, !tbaa !23
  store ptr %3, ptr %8, align 8, !tbaa !3
  %10 = load ptr, ptr %5, align 8, !tbaa !3
  %11 = load ptr, ptr %6, align 8, !tbaa !3
  %12 = load ptr, ptr %8, align 8, !tbaa !3
  %13 = call ptr @_parse_number(ptr noundef %10, ptr noundef %11, ptr noundef %12)
  store ptr %13, ptr %5, align 8, !tbaa !3
  %14 = load ptr, ptr %5, align 8, !tbaa !3
  %15 = icmp ne ptr %14, null
  br i1 %15, label %16, label %188

16:                                               ; preds = %4
  call void @llvm.lifetime.start.p0(i64 4, ptr %9) #9
  %17 = load ptr, ptr %6, align 8, !tbaa !3
  %18 = load ptr, ptr %5, align 8, !tbaa !3
  %19 = ptrtoint ptr %17 to i64
  %20 = ptrtoint ptr %18 to i64
  %21 = sub i64 %19, %20
  %22 = trunc i64 %21 to i32
  store i32 %22, ptr %9, align 4, !tbaa !23
  %23 = load i32, ptr %9, align 4, !tbaa !23
  %24 = icmp ugt i32 %23, 0
  br i1 %24, label %25, label %183

25:                                               ; preds = %16
  %26 = load i32, ptr %9, align 4, !tbaa !23
  %27 = icmp eq i32 %26, 1
  br i1 %27, label %28, label %37

28:                                               ; preds = %25
  %29 = load ptr, ptr %5, align 8, !tbaa !3
  %30 = load i8, ptr %29, align 1, !tbaa !18
  %31 = sext i8 %30 to i32
  %32 = icmp eq i32 %31, 37
  br i1 %32, label %33, label %37

33:                                               ; preds = %28
  %34 = load ptr, ptr %8, align 8, !tbaa !3
  %35 = load float, ptr %34, align 4, !tbaa !64
  %36 = fmul float %35, 0x3F847AE140000000
  store float %36, ptr %34, align 4, !tbaa !64
  br label %182

37:                                               ; preds = %28, %25
  %38 = load i32, ptr %9, align 4, !tbaa !23
  %39 = icmp eq i32 %38, 2
  br i1 %39, label %40, label %181

40:                                               ; preds = %37
  %41 = load ptr, ptr %5, align 8, !tbaa !3
  %42 = getelementptr inbounds i8, ptr %41, i64 0
  %43 = load i8, ptr %42, align 1, !tbaa !18
  %44 = sext i8 %43 to i32
  %45 = icmp eq i32 %44, 112
  br i1 %45, label %46, label %60

46:                                               ; preds = %40
  %47 = load ptr, ptr %5, align 8, !tbaa !3
  %48 = getelementptr inbounds i8, ptr %47, i64 1
  %49 = load i8, ptr %48, align 1, !tbaa !18
  %50 = sext i8 %49 to i32
  %51 = icmp eq i32 %50, 116
  br i1 %51, label %52, label %60

52:                                               ; preds = %46
  %53 = load ptr, ptr %8, align 8, !tbaa !3
  %54 = load float, ptr %53, align 4, !tbaa !64
  %55 = fdiv float %54, 7.200000e+01
  %56 = load i32, ptr %7, align 4, !tbaa !23
  %57 = sitofp i32 %56 to float
  %58 = fmul float %55, %57
  %59 = load ptr, ptr %8, align 8, !tbaa !3
  store float %58, ptr %59, align 4, !tbaa !64
  br label %180

60:                                               ; preds = %46, %40
  %61 = load ptr, ptr %5, align 8, !tbaa !3
  %62 = getelementptr inbounds i8, ptr %61, i64 0
  %63 = load i8, ptr %62, align 1, !tbaa !18
  %64 = sext i8 %63 to i32
  %65 = icmp eq i32 %64, 112
  br i1 %65, label %66, label %80

66:                                               ; preds = %60
  %67 = load ptr, ptr %5, align 8, !tbaa !3
  %68 = getelementptr inbounds i8, ptr %67, i64 1
  %69 = load i8, ptr %68, align 1, !tbaa !18
  %70 = sext i8 %69 to i32
  %71 = icmp eq i32 %70, 99
  br i1 %71, label %72, label %80

72:                                               ; preds = %66
  %73 = load ptr, ptr %8, align 8, !tbaa !3
  %74 = load float, ptr %73, align 4, !tbaa !64
  %75 = fdiv float %74, 6.000000e+00
  %76 = load i32, ptr %7, align 4, !tbaa !23
  %77 = sitofp i32 %76 to float
  %78 = fmul float %75, %77
  %79 = load ptr, ptr %8, align 8, !tbaa !3
  store float %78, ptr %79, align 4, !tbaa !64
  br label %179

80:                                               ; preds = %66, %60
  %81 = load ptr, ptr %5, align 8, !tbaa !3
  %82 = getelementptr inbounds i8, ptr %81, i64 0
  %83 = load i8, ptr %82, align 1, !tbaa !18
  %84 = sext i8 %83 to i32
  %85 = icmp eq i32 %84, 105
  br i1 %85, label %86, label %99

86:                                               ; preds = %80
  %87 = load ptr, ptr %5, align 8, !tbaa !3
  %88 = getelementptr inbounds i8, ptr %87, i64 1
  %89 = load i8, ptr %88, align 1, !tbaa !18
  %90 = sext i8 %89 to i32
  %91 = icmp eq i32 %90, 110
  br i1 %91, label %92, label %99

92:                                               ; preds = %86
  %93 = load ptr, ptr %8, align 8, !tbaa !3
  %94 = load float, ptr %93, align 4, !tbaa !64
  %95 = load i32, ptr %7, align 4, !tbaa !23
  %96 = sitofp i32 %95 to float
  %97 = fmul float %94, %96
  %98 = load ptr, ptr %8, align 8, !tbaa !3
  store float %97, ptr %98, align 4, !tbaa !64
  br label %178

99:                                               ; preds = %86, %80
  %100 = load ptr, ptr %5, align 8, !tbaa !3
  %101 = getelementptr inbounds i8, ptr %100, i64 0
  %102 = load i8, ptr %101, align 1, !tbaa !18
  %103 = sext i8 %102 to i32
  %104 = icmp eq i32 %103, 109
  br i1 %104, label %105, label %119

105:                                              ; preds = %99
  %106 = load ptr, ptr %5, align 8, !tbaa !3
  %107 = getelementptr inbounds i8, ptr %106, i64 1
  %108 = load i8, ptr %107, align 1, !tbaa !18
  %109 = sext i8 %108 to i32
  %110 = icmp eq i32 %109, 109
  br i1 %110, label %111, label %119

111:                                              ; preds = %105
  %112 = load ptr, ptr %8, align 8, !tbaa !3
  %113 = load float, ptr %112, align 4, !tbaa !64
  %114 = fdiv float %113, 0x4039666660000000
  %115 = load i32, ptr %7, align 4, !tbaa !23
  %116 = sitofp i32 %115 to float
  %117 = fmul float %114, %116
  %118 = load ptr, ptr %8, align 8, !tbaa !3
  store float %117, ptr %118, align 4, !tbaa !64
  br label %177

119:                                              ; preds = %105, %99
  %120 = load ptr, ptr %5, align 8, !tbaa !3
  %121 = getelementptr inbounds i8, ptr %120, i64 0
  %122 = load i8, ptr %121, align 1, !tbaa !18
  %123 = sext i8 %122 to i32
  %124 = icmp eq i32 %123, 99
  br i1 %124, label %125, label %139

125:                                              ; preds = %119
  %126 = load ptr, ptr %5, align 8, !tbaa !3
  %127 = getelementptr inbounds i8, ptr %126, i64 1
  %128 = load i8, ptr %127, align 1, !tbaa !18
  %129 = sext i8 %128 to i32
  %130 = icmp eq i32 %129, 109
  br i1 %130, label %131, label %139

131:                                              ; preds = %125
  %132 = load ptr, ptr %8, align 8, !tbaa !3
  %133 = load float, ptr %132, align 4, !tbaa !64
  %134 = fdiv float %133, 0x400451EB80000000
  %135 = load i32, ptr %7, align 4, !tbaa !23
  %136 = sitofp i32 %135 to float
  %137 = fmul float %134, %136
  %138 = load ptr, ptr %8, align 8, !tbaa !3
  store float %137, ptr %138, align 4, !tbaa !64
  br label %176

139:                                              ; preds = %125, %119
  %140 = load ptr, ptr %5, align 8, !tbaa !3
  %141 = getelementptr inbounds i8, ptr %140, i64 0
  %142 = load i8, ptr %141, align 1, !tbaa !18
  %143 = sext i8 %142 to i32
  %144 = icmp eq i32 %143, 101
  br i1 %144, label %145, label %156

145:                                              ; preds = %139
  %146 = load ptr, ptr %5, align 8, !tbaa !3
  %147 = getelementptr inbounds i8, ptr %146, i64 1
  %148 = load i8, ptr %147, align 1, !tbaa !18
  %149 = sext i8 %148 to i32
  %150 = icmp eq i32 %149, 109
  br i1 %150, label %151, label %156

151:                                              ; preds = %145
  %152 = load ptr, ptr %8, align 8, !tbaa !3
  %153 = load float, ptr %152, align 4, !tbaa !64
  %154 = fmul float %153, 1.600000e+01
  %155 = load ptr, ptr %8, align 8, !tbaa !3
  store float %154, ptr %155, align 4, !tbaa !64
  br label %175

156:                                              ; preds = %145, %139
  %157 = load ptr, ptr %5, align 8, !tbaa !3
  %158 = getelementptr inbounds i8, ptr %157, i64 0
  %159 = load i8, ptr %158, align 1, !tbaa !18
  %160 = sext i8 %159 to i32
  %161 = icmp eq i32 %160, 101
  br i1 %161, label %162, label %174

162:                                              ; preds = %156
  %163 = load ptr, ptr %5, align 8, !tbaa !3
  %164 = getelementptr inbounds i8, ptr %163, i64 1
  %165 = load i8, ptr %164, align 1, !tbaa !18
  %166 = sext i8 %165 to i32
  %167 = icmp eq i32 %166, 120
  br i1 %167, label %168, label %174

168:                                              ; preds = %162
  %169 = load ptr, ptr %8, align 8, !tbaa !3
  %170 = load float, ptr %169, align 4, !tbaa !64
  %171 = fmul float %170, 1.600000e+01
  %172 = fmul float %171, 0x3FE0A3D700000000
  %173 = load ptr, ptr %8, align 8, !tbaa !3
  store float %172, ptr %173, align 4, !tbaa !64
  br label %174

174:                                              ; preds = %168, %162, %156
  br label %175

175:                                              ; preds = %174, %151
  br label %176

176:                                              ; preds = %175, %131
  br label %177

177:                                              ; preds = %176, %111
  br label %178

178:                                              ; preds = %177, %92
  br label %179

179:                                              ; preds = %178, %72
  br label %180

180:                                              ; preds = %179, %52
  br label %181

181:                                              ; preds = %180, %37
  br label %182

182:                                              ; preds = %181, %33
  br label %183

183:                                              ; preds = %182, %16
  %184 = load i32, ptr %9, align 4, !tbaa !23
  %185 = load ptr, ptr %5, align 8, !tbaa !3
  %186 = zext i32 %184 to i64
  %187 = getelementptr inbounds nuw i8, ptr %185, i64 %186
  store ptr %187, ptr %5, align 8, !tbaa !3
  call void @llvm.lifetime.end.p0(i64 4, ptr %9) #9
  br label %188

188:                                              ; preds = %183, %4
  %189 = load ptr, ptr %5, align 8, !tbaa !3
  ret ptr %189
}