; Function Attrs: nofree nounwind uwtable
define internal fastcc void @_parse_length(ptr noundef %0, ptr noundef %1, i32 noundef %2, ptr nocapture noundef writeonly %3) unnamed_addr #7 {
  %5 = alloca ptr, align 8
  %6 = ptrtoint ptr %0 to i64
  %7 = ptrtoint ptr %1 to i64
  %.not.i = icmp eq ptr %0, null
  br i1 %.not.i, label %_parse_number.exit.thread, label %.preheader.i

.preheader.i:                                     ; preds = %4
  %8 = icmp ult ptr %0, %1
  br i1 %8, label %.lr.ph.preheader.i, label %.critedge.i

.lr.ph.preheader.i:                               ; preds = %.preheader.i
  %9 = sub i64 %7, %6
  %scevgep.i = getelementptr i8, ptr %0, i64 %9
  br label %.lr.ph.i

.lr.ph.i:                                         ; preds = %_is_number_begin.exit.thread.i, %.lr.ph.preheader.i
  %.01012.i = phi ptr [ %14, %_is_number_begin.exit.thread.i ], [ %0, %.lr.ph.preheader.i ]
  %10 = load i8, ptr %.01012.i, align 1, !tbaa !31
  %.not.i.i = icmp eq i8 %10, 0
  br i1 %.not.i.i, label %_is_number_begin.exit.thread.i, label %_is_number_begin.exit.i

_is_number_begin.exit.i:                          ; preds = %.lr.ph.i
  %11 = zext nneg i8 %10 to i64
  %memchr.bounds.i.i = icmp ult i8 %10, 64
  %12 = shl nuw i64 1, %11
  %13 = and i64 %12, 288063250384289793
  %memchr.bits.i.i = icmp ne i64 %13, 0
  %memchr2.i.i = select i1 %memchr.bounds.i.i, i1 %memchr.bits.i.i, i1 false
  br i1 %memchr2.i.i, label %.critedge.i, label %_is_number_begin.exit.thread.i

_is_number_begin.exit.thread.i:                   ; preds = %_is_number_begin.exit.i, %.lr.ph.i
  %14 = getelementptr inbounds nuw i8, ptr %.01012.i, i64 1
  %exitcond.not.i = icmp eq ptr %14, %1
  br i1 %exitcond.not.i, label %.critedge.i, label %.lr.ph.i, !llvm.loop !56

.critedge.i:                                      ; preds = %_is_number_begin.exit.thread.i, %_is_number_begin.exit.i, %.preheader.i
  %.010.lcssa.i = phi ptr [ %0, %.preheader.i ], [ %.01012.i, %_is_number_begin.exit.i ], [ %scevgep.i, %_is_number_begin.exit.thread.i ]
  %15 = icmp eq ptr %.010.lcssa.i, %1
  br i1 %15, label %_parse_number.exit.thread, label %_parse_number.exit

_parse_number.exit:                               ; preds = %.critedge.i
  call void @llvm.lifetime.start.p0(i64 8, ptr nonnull %5) #14
  store ptr null, ptr %5, align 8, !tbaa !46
  %16 = call float @strtof(ptr noundef nonnull %.010.lcssa.i, ptr noundef nonnull %5) #14
  store float %16, ptr %3, align 4, !tbaa !57
  %17 = load ptr, ptr %5, align 8, !tbaa !46
  call void @llvm.lifetime.end.p0(i64 8, ptr nonnull %5) #14
  %.not = icmp eq ptr %17, null
  br i1 %.not, label %_parse_number.exit.thread, label %18

18:                                               ; preds = %_parse_number.exit
  %19 = ptrtoint ptr %17 to i64
  %20 = sub i64 %7, %19
  %21 = trunc i64 %20 to i32
  switch i32 %21, label %_parse_number.exit.thread [
    i32 2, label %27
    i32 1, label %22
  ]

22:                                               ; preds = %18
  %23 = load i8, ptr %17, align 1, !tbaa !31
  %24 = icmp eq i8 %23, 37
  br i1 %24, label %25, label %_parse_number.exit.thread

25:                                               ; preds = %22
  %26 = fmul float %16, 0x3F847AE140000000
  br label %.thread54.sink.split

27:                                               ; preds = %18
  %28 = load i8, ptr %17, align 1, !tbaa !31
  switch i8 %28, label %_parse_number.exit.thread [
    i8 112, label %29
    i8 105, label %40
    i8 109, label %47
    i8 99, label %55
    i8 101, label %63
  ]

29:                                               ; preds = %27
  %30 = getelementptr inbounds i8, ptr %17, i64 1
  %31 = load i8, ptr %30, align 1, !tbaa !31
  switch i8 %31, label %_parse_number.exit.thread [
    i8 116, label %32
    i8 99, label %36
  ]

32:                                               ; preds = %29
  %33 = fdiv float %16, 7.200000e+01
  %34 = sitofp i32 %2 to float
  %35 = fmul float %33, %34
  br label %.thread54.sink.split

36:                                               ; preds = %29
  %37 = fdiv float %16, 6.000000e+00
  %38 = sitofp i32 %2 to float
  %39 = fmul float %37, %38
  br label %.thread54.sink.split

40:                                               ; preds = %27
  %41 = getelementptr inbounds i8, ptr %17, i64 1
  %42 = load i8, ptr %41, align 1, !tbaa !31
  %43 = icmp eq i8 %42, 110
  br i1 %43, label %44, label %_parse_number.exit.thread

44:                                               ; preds = %40
  %45 = sitofp i32 %2 to float
  %46 = fmul float %16, %45
  br label %.thread54.sink.split

47:                                               ; preds = %27
  %48 = getelementptr inbounds i8, ptr %17, i64 1
  %49 = load i8, ptr %48, align 1, !tbaa !31
  %50 = icmp eq i8 %49, 109
  br i1 %50, label %51, label %_parse_number.exit.thread

51:                                               ; preds = %47
  %52 = fdiv float %16, 0x4039666660000000
  %53 = sitofp i32 %2 to float
  %54 = fmul float %52, %53
  br label %.thread54.sink.split

55:                                               ; preds = %27
  %56 = getelementptr inbounds i8, ptr %17, i64 1
  %57 = load i8, ptr %56, align 1, !tbaa !31
  %58 = icmp eq i8 %57, 109
  br i1 %58, label %59, label %_parse_number.exit.thread

59:                                               ; preds = %55
  %60 = fdiv float %16, 0x400451EB80000000
  %61 = sitofp i32 %2 to float
  %62 = fmul float %60, %61
  br label %.thread54.sink.split

63:                                               ; preds = %27
  %64 = getelementptr inbounds i8, ptr %17, i64 1
  %65 = load i8, ptr %64, align 1, !tbaa !31
  switch i8 %65, label %_parse_number.exit.thread [
    i8 109, label %66
    i8 120, label %68
  ]

66:                                               ; preds = %63
  %67 = fmul float %16, 1.600000e+01
  br label %.thread54.sink.split

68:                                               ; preds = %63
  %69 = fmul float %16, 1.600000e+01
  %70 = fmul float %69, 0x3FE0A3D700000000
  br label %.thread54.sink.split

.thread54.sink.split:                             ; preds = %36, %51, %66, %68, %59, %44, %32, %25
  %.sink = phi float [ %26, %25 ], [ %35, %32 ], [ %46, %44 ], [ %62, %59 ], [ %70, %68 ], [ %67, %66 ], [ %54, %51 ], [ %39, %36 ]
  store float %.sink, ptr %3, align 4, !tbaa !57
  br label %_parse_number.exit.thread

_parse_number.exit.thread:                        ; preds = %18, %22, %55, %47, %40, %27, %29, %63, %.thread54.sink.split, %.critedge.i, %4, %_parse_number.exit
  ret void
}